; Function Attrs: nounwind uwtable
define internal noundef i32 @rdft_horizontal8(ptr noundef readonly captures(none) %0, ptr noundef readonly captures(none) %1, i32 noundef %2, i32 noundef %3) #1 {
  %5 = getelementptr inbounds nuw i8, ptr %0, i64 72
  %6 = load ptr, ptr %5, align 8, !tbaa !4
  %7 = getelementptr inbounds nuw i8, ptr %6, i64 16
  %8 = load i32, ptr %7, align 8, !tbaa !48
  %9 = icmp sgt i32 %8, 0
  br i1 %9, label %.lr.ph75, label %._crit_edge76

.lr.ph75:                                         ; preds = %4
  %10 = getelementptr inbounds nuw i8, ptr %6, i64 24
  %11 = getelementptr inbounds nuw i8, ptr %6, i64 40
  %12 = add nsw i32 %2, 1
  %13 = getelementptr inbounds nuw i8, ptr %1, i64 64
  %14 = getelementptr inbounds nuw i8, ptr %6, i64 4344
  %15 = getelementptr inbounds nuw i8, ptr %6, i64 4216
  %16 = getelementptr inbounds nuw i8, ptr %6, i64 4280
  %17 = getelementptr inbounds nuw i8, ptr %6, i64 4152
  %18 = getelementptr inbounds nuw i8, ptr %6, i64 56
  %19 = sext i32 %2 to i64
  %20 = getelementptr inbounds nuw i8, ptr %6, i64 4408
  br label %21

._crit_edge76:                                    ; preds = %._crit_edge72, %4
  ret i32 0

21:                                               ; preds = %.lr.ph75, %._crit_edge72
  %22 = phi i32 [ %8, %.lr.ph75 ], [ %83, %._crit_edge72 ]
  %indvars.iv87 = phi i64 [ 0, %.lr.ph75 ], [ %indvars.iv.next88, %._crit_edge72 ]
  %23 = getelementptr inbounds nuw [4 x i32], ptr %10, i64 0, i64 %indvars.iv87
  %24 = load i32, ptr %23, align 4, !tbaa !20
  %25 = getelementptr inbounds nuw [4 x i32], ptr %11, i64 0, i64 %indvars.iv87
  %26 = load i32, ptr %25, align 4, !tbaa !20
  %27 = mul nsw i32 %26, %2
  %28 = sdiv i32 %27, %3
  %29 = mul nsw i32 %26, %12
  %30 = sdiv i32 %29, %3
  %31 = icmp slt i32 %28, %30
  br i1 %31, label %.lr.ph69, label %._crit_edge72

.lr.ph69:                                         ; preds = %21
  %32 = getelementptr inbounds nuw [8 x ptr], ptr %1, i64 0, i64 %indvars.iv87
  %33 = load ptr, ptr %32, align 8, !tbaa !21
  %34 = getelementptr inbounds nuw [8 x i32], ptr %13, i64 0, i64 %indvars.iv87
  %35 = load i32, ptr %34, align 4, !tbaa !20
  %36 = getelementptr inbounds nuw [4 x ptr], ptr %14, i64 0, i64 %indvars.iv87
  %37 = load ptr, ptr %36, align 8, !tbaa !63
  %38 = getelementptr inbounds nuw [4 x i64], ptr %15, i64 0, i64 %indvars.iv87
  %39 = load i64, ptr %38, align 8, !tbaa !56
  %40 = icmp sgt i32 %24, 0
  %41 = getelementptr inbounds nuw [4 x i64], ptr %16, i64 0, i64 %indvars.iv87
  %42 = load i64, ptr %41, align 8, !tbaa !56
  %43 = trunc i64 %42 to i32
  %44 = sub nsw i32 %43, %24
  %45 = icmp sgt i32 %44, 1
  %46 = lshr i32 %44, 1
  %47 = add nsw i32 %46, %24
  %48 = shl nsw i32 %24, 1
  %49 = sext i32 %24 to i64
  %50 = sext i32 %47 to i64
  %sext = shl i64 %42, 32
  %51 = ashr exact i64 %sext, 32
  %52 = sext i32 %28 to i64
  %53 = sext i32 %35 to i64
  %wide.trip.count81 = sext i32 %30 to i64
  %wide.trip.count = zext nneg i32 %24 to i64
  br label %59

.lr.ph71:                                         ; preds = %copy_rev.exit
  %54 = getelementptr inbounds [32 x [4 x ptr]], ptr %18, i64 0, i64 %19, i64 %indvars.iv87
  %55 = getelementptr inbounds nuw [4 x ptr], ptr %20, i64 0, i64 %indvars.iv87
  %56 = getelementptr inbounds nuw [4 x i64], ptr %15, i64 0, i64 %indvars.iv87
  %57 = getelementptr inbounds nuw [4 x ptr], ptr %14, i64 0, i64 %indvars.iv87
  %58 = sext i32 %28 to i64
  br label %86

59:                                               ; preds = %.lr.ph69, %copy_rev.exit
  %indvars.iv78 = phi i64 [ %52, %.lr.ph69 ], [ %indvars.iv.next79, %copy_rev.exit ]
  %60 = mul nsw i64 %indvars.iv78, %53
  %61 = getelementptr inbounds i8, ptr %33, i64 %60
  %62 = mul i64 %39, %indvars.iv78
  %63 = getelementptr inbounds nuw float, ptr %37, i64 %62
  br i1 %40, label %.lr.ph, label %._crit_edge

._crit_edge:                                      ; preds = %.lr.ph, %59
  br i1 %45, label %.lr.ph.i, label %.preheader.i

.preheader.loopexit.i:                            ; preds = %.lr.ph.i
  %64 = trunc nsw i64 %indvars.iv.next.i to i32
  br label %.preheader.i

.preheader.i:                                     ; preds = %.preheader.loopexit.i, %._crit_edge
  %.0.lcssa.i = phi i32 [ %24, %._crit_edge ], [ %64, %.preheader.loopexit.i ]
  %65 = icmp slt i32 %.0.lcssa.i, %43
  br i1 %65, label %.lr.ph21.preheader.i, label %copy_rev.exit

.lr.ph21.preheader.i:                             ; preds = %.preheader.i
  %66 = sext i32 %.0.lcssa.i to i64
  br label %.lr.ph21.i

.lr.ph.i:                                         ; preds = %._crit_edge, %.lr.ph.i
  %indvars.iv.i = phi i64 [ %indvars.iv.next.i, %.lr.ph.i ], [ %49, %._crit_edge ]
  %67 = trunc nsw i64 %indvars.iv.i to i32
  %68 = xor i32 %67, -1
  %69 = add i32 %48, %68
  %70 = sext i32 %69 to i64
  %71 = getelementptr inbounds float, ptr %63, i64 %70
  %72 = load float, ptr %71, align 4, !tbaa !65
  %73 = getelementptr inbounds float, ptr %63, i64 %indvars.iv.i
  store float %72, ptr %73, align 4, !tbaa !65
  %indvars.iv.next.i = add nsw i64 %indvars.iv.i, 1
  %74 = icmp slt i64 %indvars.iv.next.i, %50
  br i1 %74, label %.lr.ph.i, label %.preheader.loopexit.i, !llvm.loop !80

.lr.ph21.i:                                       ; preds = %.lr.ph21.i, %.lr.ph21.preheader.i
  %indvars.iv23.i = phi i64 [ %66, %.lr.ph21.preheader.i ], [ %indvars.iv.next24.i, %.lr.ph21.i ]
  %75 = sub nsw i64 %51, %indvars.iv23.i
  %76 = getelementptr inbounds float, ptr %63, i64 %75
  %77 = load float, ptr %76, align 4, !tbaa !65
  %78 = getelementptr inbounds float, ptr %63, i64 %indvars.iv23.i
  store float %77, ptr %78, align 4, !tbaa !65
  %indvars.iv.next24.i = add nsw i64 %indvars.iv23.i, 1
  %exitcond.not.i = icmp eq i64 %indvars.iv.next24.i, %51
  br i1 %exitcond.not.i, label %copy_rev.exit, label %.lr.ph21.i, !llvm.loop !81

copy_rev.exit:                                    ; preds = %.lr.ph21.i, %.preheader.i
  %indvars.iv.next79 = add nsw i64 %indvars.iv78, 1
  %exitcond82.not = icmp eq i64 %indvars.iv.next79, %wide.trip.count81
  br i1 %exitcond82.not, label %.lr.ph71, label %59, !llvm.loop !99

.lr.ph:                                           ; preds = %59, %.lr.ph
  %indvars.iv = phi i64 [ %indvars.iv.next, %.lr.ph ], [ 0, %59 ]
  %79 = getelementptr inbounds nuw i8, ptr %61, i64 %indvars.iv
  %80 = load i8, ptr %79, align 1, !tbaa !75
  %81 = uitofp i8 %80 to float
  %82 = getelementptr inbounds nuw float, ptr %63, i64 %indvars.iv
  store float %81, ptr %82, align 4, !tbaa !65
  %indvars.iv.next = add nuw nsw i64 %indvars.iv, 1
  %exitcond.not = icmp eq i64 %indvars.iv.next, %wide.trip.count
  br i1 %exitcond.not, label %._crit_edge, label %.lr.ph, !llvm.loop !100

._crit_edge72.loopexit:                           ; preds = %86
  %.pre = load i32, ptr %7, align 8, !tbaa !48
  br label %._crit_edge72

._crit_edge72:                                    ; preds = %21, %._crit_edge72.loopexit
  %83 = phi i32 [ %.pre, %._crit_edge72.loopexit ], [ %22, %21 ]
  %indvars.iv.next88 = add nuw nsw i64 %indvars.iv87, 1
  %84 = sext i32 %83 to i64
  %85 = icmp slt i64 %indvars.iv.next88, %84
  br i1 %85, label %21, label %._crit_edge76, !llvm.loop !101

86:                                               ; preds = %.lr.ph71, %86
  %indvars.iv83 = phi i64 [ %58, %.lr.ph71 ], [ %indvars.iv.next84, %86 ]
  %87 = load ptr, ptr %17, align 8, !tbaa !102
  %88 = load ptr, ptr %54, align 8, !tbaa !87
  %89 = load ptr, ptr %55, align 8, !tbaa !63
  %90 = load i64, ptr %56, align 8, !tbaa !56
  %91 = mul i64 %90, %indvars.iv83
  %92 = getelementptr inbounds nuw float, ptr %89, i64 %91
  %93 = load ptr, ptr %57, align 8, !tbaa !63
  %94 = getelementptr inbounds nuw float, ptr %93, i64 %91
  tail call void %87(ptr noundef %88, ptr noundef %92, ptr noundef %94, i64 noundef 4) #10
  %indvars.iv.next84 = add nsw i64 %indvars.iv83, 1
  %lftr.wideiv = trunc i64 %indvars.iv.next84 to i32
  %exitcond86.not = icmp eq i32 %30, %lftr.wideiv
  br i1 %exitcond86.not, label %._crit_edge72.loopexit, label %86, !llvm.loop !103
}